target datalayout = "e-m:e-p270:32:32-p271:32:32-p272:64:64-i64:64-i128:128-f80:128-n8:16:32:64-S128"
target triple = "x86_64-pc-linux-gnu"

%struct.mi_page_s = type { i32, i32, i8, i16, i16, %union.mi_page_flags_s, i8, ptr, i32, i32, ptr, i64, i64, ptr, ptr, [1 x i64] }
%union.mi_page_flags_s = type { i8 }
%struct.mi_heap_s = type { ptr, [129 x ptr], [75 x %struct.mi_page_queue_s], ptr, i64, i64, [2 x i64], %struct.mi_random_cxt_s, i64, i64, i64, ptr, i8 }
%struct.mi_page_queue_s = type { ptr, ptr, i64 }
%struct.mi_random_cxt_s = type { [16 x i32], [16 x i32], i32 }

; Function Attrs: inlinehint nounwind uwtable
define internal i64 @_mi_wsize_from_size(i64 noundef %0) #1 {
  %2 = alloca i64, align 8
  store i64 %0, ptr %2, align 8, !tbaa !8
  %3 = load i64, ptr %2, align 8, !tbaa !8
  %4 = add i64 %3, 8
  %5 = sub i64 %4, 1
  %6 = udiv i64 %5, 8
  ret i64 %6
}

; Function Attrs: inlinehint nounwind uwtable
define internal ptr @_mi_heap_get_free_small_page(ptr noundef %0, i64 noundef %1) #1 {
  %3 = alloca ptr, align 8
  %4 = alloca i64, align 8
  %5 = alloca i64, align 8
  store ptr %0, ptr %3, align 8, !tbaa !3
  store i64 %1, ptr %4, align 8, !tbaa !8
  call void @llvm.lifetime.start.p0(i64 8, ptr %5) #10
  %6 = load i64, ptr %4, align 8, !tbaa !8
  %7 = call i64 @_mi_wsize_from_size(i64 noundef %6)
  store i64 %7, ptr %5, align 8, !tbaa !8
  %8 = load ptr, ptr %3, align 8, !tbaa !3
  %9 = getelementptr inbounds nuw %struct.mi_heap_s, ptr %8, i32 0, i32 1
  %10 = load i64, ptr %5, align 8, !tbaa !8
  %11 = getelementptr inbounds nuw [129 x ptr], ptr %9, i64 0, i64 %10
  %12 = load ptr, ptr %11, align 8, !tbaa !12
  call void @llvm.lifetime.end.p0(i64 8, ptr %5) #10
  ret ptr %12
}

; Function Attrs: inlinehint nounwind uwtable
define internal zeroext i1 @_mi_is_power_of_two(i64 noundef %0) #1 {
  %2 = alloca i64, align 8
  store i64 %0, ptr %2, align 8, !tbaa !8
  %3 = load i64, ptr %2, align 8, !tbaa !8
  %4 = load i64, ptr %2, align 8, !tbaa !8
  %5 = sub i64 %4, 1
  %6 = and i64 %3, %5
  %7 = icmp eq i64 %6, 0
  ret i1 %7
}

; Function Attrs: nounwind uwtable
define internal ptr @mi_heap_malloc_zero_aligned_at(ptr noundef %0, i64 noundef %1, i64 noundef %2, i64 noundef %3, i1 noundef zeroext %4) #0 {
  %6 = alloca ptr, align 8
  %7 = alloca ptr, align 8
  %8 = alloca i64, align 8
  %9 = alloca i64, align 8
  %10 = alloca i64, align 8
  %11 = alloca i8, align 1
  %12 = alloca i64, align 8
  %13 = alloca i64, align 8
  %14 = alloca ptr, align 8
  %15 = alloca i8, align 1
  %16 = alloca ptr, align 8
  %17 = alloca i32, align 4
  store ptr %0, ptr %7, align 8, !tbaa !3
  store i64 %1, ptr %8, align 8, !tbaa !8
  store i64 %2, ptr %9, align 8, !tbaa !8
  store i64 %3, ptr %10, align 8, !tbaa !8
  %18 = zext i1 %4 to i8
  store i8 %18, ptr %11, align 1, !tbaa !10
  %19 = load i64, ptr %9, align 8, !tbaa !8
  %20 = icmp eq i64 %19, 0
  br i1 %20, label %25, label %21

21:                                               ; preds = %5
  %22 = load i64, ptr %9, align 8, !tbaa !8
  %23 = call zeroext i1 @_mi_is_power_of_two(i64 noundef %22)
  %24 = xor i1 %23, true
  br label %25

25:                                               ; preds = %21, %5
  %26 = phi i1 [ true, %5 ], [ %24, %21 ]
  %27 = xor i1 %26, true
  %28 = xor i1 %27, true
  %29 = zext i1 %28 to i32
  %30 = sext i32 %29 to i64
  %31 = call i64 @llvm.expect.i64(i64 %30, i64 0)
  %32 = icmp ne i64 %31, 0
  br i1 %32, label %33, label %34

33:                                               ; preds = %25
  store ptr null, ptr %6, align 8
  br label %122

34:                                               ; preds = %25
  %35 = load i64, ptr %9, align 8, !tbaa !8
  %36 = icmp ugt i64 %35, 1048576
  %37 = xor i1 %36, true
  %38 = xor i1 %37, true
  %39 = zext i1 %38 to i32
  %40 = sext i32 %39 to i64
  %41 = call i64 @llvm.expect.i64(i64 %40, i64 0)
  %42 = icmp ne i64 %41, 0
  br i1 %42, label %43, label %44

43:                                               ; preds = %34
  store ptr null, ptr %6, align 8
  br label %122

44:                                               ; preds = %34
  %45 = load i64, ptr %8, align 8, !tbaa !8
  %46 = icmp ugt i64 %45, 9223372036854775807
  %47 = xor i1 %46, true
  %48 = xor i1 %47, true
  %49 = zext i1 %48 to i32
  %50 = sext i32 %49 to i64
  %51 = call i64 @llvm.expect.i64(i64 %50, i64 0)
  %52 = icmp ne i64 %51, 0
  br i1 %52, label %53, label %54

53:                                               ; preds = %44
  store ptr null, ptr %6, align 8
  br label %122

54:                                               ; preds = %44
  call void @llvm.lifetime.start.p0(i64 8, ptr %12) #10
  %55 = load i64, ptr %9, align 8, !tbaa !8
  %56 = sub i64 %55, 1
  store i64 %56, ptr %12, align 8, !tbaa !8
  call void @llvm.lifetime.start.p0(i64 8, ptr %13) #10
  %57 = load i64, ptr %8, align 8, !tbaa !8
  %58 = add i64 %57, 0
  store i64 %58, ptr %13, align 8, !tbaa !8
  %59 = load i64, ptr %13, align 8, !tbaa !8
  %60 = icmp ule i64 %59, 1024
  %61 = xor i1 %60, true
  %62 = xor i1 %61, true
  %63 = zext i1 %62 to i32
  %64 = sext i32 %63 to i64
  %65 = call i64 @llvm.expect.i64(i64 %64, i64 1)
  %66 = icmp ne i64 %65, 0
  br i1 %66, label %67, label %113

67:                                               ; preds = %54
  call void @llvm.lifetime.start.p0(i64 8, ptr %14) #10
  %68 = load ptr, ptr %7, align 8, !tbaa !3
  %69 = load i64, ptr %13, align 8, !tbaa !8
  %70 = call ptr @_mi_heap_get_free_small_page(ptr noundef %68, i64 noundef %69)
  store ptr %70, ptr %14, align 8, !tbaa !12
  call void @llvm.lifetime.start.p0(i64 1, ptr %15) #10
  %71 = load ptr, ptr %14, align 8, !tbaa !12
  %72 = getelementptr inbounds nuw %struct.mi_page_s, ptr %71, i32 0, i32 7
  %73 = load ptr, ptr %72, align 8, !tbaa !14
  %74 = ptrtoint ptr %73 to i64
  %75 = load i64, ptr %10, align 8, !tbaa !8
  %76 = add i64 %74, %75
  %77 = load i64, ptr %12, align 8, !tbaa !8
  %78 = and i64 %76, %77
  %79 = icmp eq i64 %78, 0
  %80 = zext i1 %79 to i8
  store i8 %80, ptr %15, align 1, !tbaa !10
  %81 = load ptr, ptr %14, align 8, !tbaa !12
  %82 = getelementptr inbounds nuw %struct.mi_page_s, ptr %81, i32 0, i32 7
  %83 = load ptr, ptr %82, align 8, !tbaa !14
  %84 = icmp ne ptr %83, null
  br i1 %84, label %85, label %88

85:                                               ; preds = %67
  %86 = load i8, ptr %15, align 1, !tbaa !10, !range !19, !noundef !20
  %87 = trunc i8 %86 to i1
  br label %88

88:                                               ; preds = %85, %67
  %89 = phi i1 [ false, %67 ], [ %87, %85 ]
  %90 = xor i1 %89, true
  %91 = xor i1 %90, true
  %92 = zext i1 %91 to i32
  %93 = sext i32 %92 to i64
  %94 = call i64 @llvm.expect.i64(i64 %93, i64 1)
  %95 = icmp ne i64 %94, 0
  br i1 %95, label %96, label %109

96:                                               ; preds = %88
  call void @llvm.lifetime.start.p0(i64 8, ptr %16) #10
  %97 = load ptr, ptr %7, align 8, !tbaa !3
  %98 = load ptr, ptr %14, align 8, !tbaa !12
  %99 = load i64, ptr %13, align 8, !tbaa !8
  %100 = call ptr @_mi_page_malloc(ptr noundef %97, ptr noundef %98, i64 noundef %99)
  store ptr %100, ptr %16, align 8, !tbaa !21
  %101 = load i8, ptr %11, align 1, !tbaa !10, !range !19, !noundef !20
  %102 = trunc i8 %101 to i1
  br i1 %102, label %103, label %107

103:                                              ; preds = %96
  %104 = load ptr, ptr %14, align 8, !tbaa !12
  %105 = load ptr, ptr %16, align 8, !tbaa !21
  %106 = load i64, ptr %8, align 8, !tbaa !8
  call void @_mi_block_zero_init(ptr noundef %104, ptr noundef %105, i64 noundef %106)
  br label %107

107:                                              ; preds = %103, %96
  %108 = load ptr, ptr %16, align 8, !tbaa !21
  store ptr %108, ptr %6, align 8
  store i32 1, ptr %17, align 4
  call void @llvm.lifetime.end.p0(i64 8, ptr %16) #10
  br label %110

109:                                              ; preds = %88
  store i32 0, ptr %17, align 4
  br label %110

110:                                              ; preds = %109, %107
  call void @llvm.lifetime.end.p0(i64 1, ptr %15) #10
  call void @llvm.lifetime.end.p0(i64 8, ptr %14) #10
  %111 = load i32, ptr %17, align 4
  switch i32 %111, label %121 [
    i32 0, label %112
  ]

112:                                              ; preds = %110
  br label %113

113:                                              ; preds = %112, %54
  %114 = load ptr, ptr %7, align 8, !tbaa !3
  %115 = load i64, ptr %8, align 8, !tbaa !8
  %116 = load i64, ptr %9, align 8, !tbaa !8
  %117 = load i64, ptr %10, align 8, !tbaa !8
  %118 = load i8, ptr %11, align 1, !tbaa !10, !range !19, !noundef !20
  %119 = trunc i8 %118 to i1
  %120 = call ptr @mi_heap_malloc_zero_aligned_at_fallback(ptr noundef %114, i64 noundef %115, i64 noundef %116, i64 noundef %117, i1 noundef zeroext %119)
  store ptr %120, ptr %6, align 8
  store i32 1, ptr %17, align 4
  br label %121

121:                                              ; preds = %113, %110
  call void @llvm.lifetime.end.p0(i64 8, ptr %13) #10
  call void @llvm.lifetime.end.p0(i64 8, ptr %12) #10
  br label %122

122:                                              ; preds = %121, %53, %43, %33
  %123 = load ptr, ptr %6, align 8
  ret ptr %123
}

; Function Attrs: nounwind uwtable
define hidden noalias ptr @mi_heap_zalloc_aligned_at(ptr noundef %0, i64 noundef %1, i64 noundef %2, i64 noundef %3) #0 {
  %5 = alloca ptr, align 8
  %6 = alloca i64, align 8
  %7 = alloca i64, align 8
  %8 = alloca i64, align 8
  store ptr %0, ptr %5, align 8, !tbaa !3
  store i64 %1, ptr %6, align 8, !tbaa !8
  store i64 %2, ptr %7, align 8, !tbaa !8
  store i64 %3, ptr %8, align 8, !tbaa !8
  %9 = load ptr, ptr %5, align 8, !tbaa !3
  %10 = load i64, ptr %6, align 8, !tbaa !8
  %11 = load i64, ptr %7, align 8, !tbaa !8
  %12 = load i64, ptr %8, align 8, !tbaa !8
  %13 = call ptr @mi_heap_malloc_zero_aligned_at(ptr noundef %9, i64 noundef %10, i64 noundef %11, i64 noundef %12, i1 noundef zeroext true)
  ret ptr %13
}