; Function Attrs: nounwind uwtable
define hidden noalias ptr @mi_heap_zalloc_aligned_at(ptr noundef %0, i64 noundef %1, i64 noundef %2, i64 noundef %3) local_unnamed_addr #0 {
  %5 = icmp eq i64 %2, 0
  br i1 %5, label %mi_heap_malloc_zero_aligned_at.exit, label %6, !prof !3

6:                                                ; preds = %4
  %7 = tail call range(i64 1, 65) i64 @llvm.ctpop.i64(i64 %2)
  %8 = icmp samesign ugt i64 %7, 1
  %9 = icmp ugt i64 %2, 1048576
  %or.cond.i = or i1 %9, %8
  %10 = icmp slt i64 %1, 0
  %or.cond34.i = or i1 %10, %or.cond.i
  br i1 %or.cond34.i, label %mi_heap_malloc_zero_aligned_at.exit, label %11, !prof !4

11:                                               ; preds = %6
  %12 = icmp samesign ult i64 %1, 1025
  br i1 %12, label %13, label %29, !prof !5

13:                                               ; preds = %11
  %14 = add nsw i64 %2, -1
  %15 = add nuw nsw i64 %1, 7
  %16 = lshr i64 %15, 3
  %17 = getelementptr inbounds nuw i8, ptr %0, i64 8
  %18 = getelementptr inbounds nuw [129 x ptr], ptr %17, i64 0, i64 %16
  %19 = load ptr, ptr %18, align 8, !tbaa !6
  %20 = getelementptr inbounds nuw i8, ptr %19, i64 16
  %21 = load ptr, ptr %20, align 8, !tbaa !11
  %22 = ptrtoint ptr %21 to i64
  %23 = add i64 %3, %22
  %24 = and i64 %23, %14
  %25 = icmp ne i64 %24, 0
  %26 = icmp eq ptr %21, null
  %.not33.i = select i1 %26, i1 true, i1 %25
  br i1 %.not33.i, label %29, label %27, !prof !3

27:                                               ; preds = %13
  %28 = tail call ptr @_mi_page_malloc(ptr noundef nonnull %0, ptr noundef nonnull %19, i64 noundef %1) #8
  tail call void @_mi_block_zero_init(ptr noundef nonnull %19, ptr noundef %28, i64 noundef %1) #8
  br label %mi_heap_malloc_zero_aligned_at.exit

29:                                               ; preds = %13, %11
  %30 = tail call fastcc ptr @mi_heap_malloc_zero_aligned_at_fallback(ptr noundef %0, i64 noundef %1, i64 noundef %2, i64 noundef %3, i1 noundef zeroext true)
  br label %mi_heap_malloc_zero_aligned_at.exit

mi_heap_malloc_zero_aligned_at.exit:              ; preds = %4, %6, %27, %29
  %.028.i = phi ptr [ null, %6 ], [ %30, %29 ], [ null, %4 ], [ %28, %27 ]
  ret ptr %.028.i
}